target datalayout = "e-m:e-p270:32:32-p271:32:32-p272:64:64-i64:64-i128:128-f80:128-n8:16:32:64-S128"
target triple = "x86_64-pc-linux-gnu"

%struct.AF_CJKMetricsRec_ = type { %struct.AF_StyleMetricsRec_, i32, [2 x %struct.AF_CJKAxisRec_] }
%struct.AF_StyleMetricsRec_ = type { ptr, %struct.AF_ScalerRec_, i8, ptr }
%struct.AF_ScalerRec_ = type { ptr, i64, i64, i64, i64, i32, i32 }
%struct.AF_CJKAxisRec_ = type { i64, i64, i32, [16 x %struct.AF_WidthRec_], i64, i64, i8, i8, i32, [8 x %struct.AF_CJKBlueRec_], i64, i64 }
%struct.AF_WidthRec_ = type { i64, i64, i64 }
%struct.AF_CJKBlueRec_ = type { %struct.AF_WidthRec_, %struct.AF_WidthRec_, i32 }
%struct.AF_GlyphHintsRec_ = type { ptr, i64, i64, i64, i64, i32, i32, ptr, i32, i32, ptr, [2 x %struct.AF_AxisHintsRec_], i32, i32, ptr, %struct.anon.0 }
%struct.AF_AxisHintsRec_ = type { i32, i32, ptr, i32, i32, ptr, i32, %struct.anon }
%struct.anon = type { [18 x %struct.AF_SegmentRec_], [12 x %struct.AF_EdgeRec_] }
%struct.AF_SegmentRec_ = type { i8, i8, i16, i16, i16, i16, i16, ptr, ptr, ptr, ptr, i64, i64, ptr, ptr }
%struct.AF_EdgeRec_ = type { i16, i64, i64, i8, i8, i64, ptr, ptr, ptr, i32, ptr, ptr }
%struct.anon.0 = type { [8 x ptr], [96 x %struct.AF_PointRec_] }
%struct.AF_PointRec_ = type { i16, i8, i8, i64, i64, i16, i16, i64, i64, i64, i64, ptr, ptr }

; Function Attrs: inlinehint nounwind uwtable
define internal i32 @FT_MulFix_x86_64(i32 noundef %0, i32 noundef %1) #4 {
  %3 = alloca i32, align 4
  %4 = alloca i32, align 4
  %5 = alloca i64, align 8
  %6 = alloca i64, align 8
  store i32 %0, ptr %3, align 4, !tbaa !43
  store i32 %1, ptr %4, align 4, !tbaa !43
  call void @llvm.lifetime.start.p0(i64 8, ptr %5) #10
  call void @llvm.lifetime.start.p0(i64 8, ptr %6) #10
  %7 = load i32, ptr %3, align 4, !tbaa !43
  %8 = sext i32 %7 to i64
  %9 = load i32, ptr %4, align 4, !tbaa !43
  %10 = sext i32 %9 to i64
  %11 = mul nsw i64 %8, %10
  store i64 %11, ptr %5, align 8, !tbaa !303
  %12 = load i64, ptr %5, align 8, !tbaa !303
  %13 = ashr i64 %12, 63
  store i64 %13, ptr %6, align 8, !tbaa !303
  %14 = load i64, ptr %6, align 8, !tbaa !303
  %15 = add nsw i64 32768, %14
  %16 = load i64, ptr %5, align 8, !tbaa !303
  %17 = add nsw i64 %16, %15
  store i64 %17, ptr %5, align 8, !tbaa !303
  %18 = load i64, ptr %5, align 8, !tbaa !303
  %19 = ashr i64 %18, 16
  %20 = trunc i64 %19 to i32
  call void @llvm.lifetime.end.p0(i64 8, ptr %6) #10
  call void @llvm.lifetime.end.p0(i64 8, ptr %5) #10
  ret i32 %20
}

; Function Attrs: nounwind uwtable
define internal void @af_cjk_hints_compute_blue_edges(ptr noundef %0, ptr noundef %1, i32 noundef %2) #0 {
  %4 = alloca ptr, align 8
  %5 = alloca ptr, align 8
  %6 = alloca i32, align 4
  %7 = alloca ptr, align 8
  %8 = alloca ptr, align 8
  %9 = alloca ptr, align 8
  %10 = alloca ptr, align 8
  %11 = alloca i64, align 8
  %12 = alloca i64, align 8
  %13 = alloca i32, align 4
  %14 = alloca ptr, align 8
  %15 = alloca i64, align 8
  %16 = alloca ptr, align 8
  %17 = alloca i8, align 1
  %18 = alloca i8, align 1
  %19 = alloca i32, align 4
  %20 = alloca i64, align 8
  %21 = alloca ptr, align 8
  store ptr %0, ptr %4, align 8, !tbaa !48
  store ptr %1, ptr %5, align 8, !tbaa !10
  store i32 %2, ptr %6, align 4, !tbaa !43
  call void @llvm.lifetime.start.p0(i64 8, ptr %7) #10
  %22 = load ptr, ptr %4, align 8, !tbaa !48
  %23 = getelementptr inbounds nuw %struct.AF_GlyphHintsRec_, ptr %22, i32 0, i32 11
  %24 = load i32, ptr %6, align 4, !tbaa !43
  %25 = zext i32 %24 to i64
  %26 = getelementptr inbounds nuw [2 x %struct.AF_AxisHintsRec_], ptr %23, i64 0, i64 %25
  store ptr %26, ptr %7, align 8, !tbaa !192
  call void @llvm.lifetime.start.p0(i64 8, ptr %8) #10
  %27 = load ptr, ptr %7, align 8, !tbaa !192
  %28 = getelementptr inbounds nuw %struct.AF_AxisHintsRec_, ptr %27, i32 0, i32 5
  %29 = load ptr, ptr %28, align 8, !tbaa !301
  store ptr %29, ptr %8, align 8, !tbaa !283
  call void @llvm.lifetime.start.p0(i64 8, ptr %9) #10
  %30 = load ptr, ptr %8, align 8, !tbaa !283
  %31 = icmp ne ptr %30, null
  br i1 %31, label %32, label %39

32:                                               ; preds = %3
  %33 = load ptr, ptr %8, align 8, !tbaa !283
  %34 = load ptr, ptr %7, align 8, !tbaa !192
  %35 = getelementptr inbounds nuw %struct.AF_AxisHintsRec_, ptr %34, i32 0, i32 3
  %36 = load i32, ptr %35, align 8, !tbaa !240
  %37 = zext i32 %36 to i64
  %38 = getelementptr inbounds nuw %struct.AF_EdgeRec_, ptr %33, i64 %37
  br label %40

39:                                               ; preds = %3
  br label %40

40:                                               ; preds = %39, %32
  %41 = phi ptr [ %38, %32 ], [ null, %39 ]
  store ptr %41, ptr %9, align 8, !tbaa !283
  call void @llvm.lifetime.start.p0(i64 8, ptr %10) #10
  %42 = load ptr, ptr %5, align 8, !tbaa !10
  %43 = getelementptr inbounds nuw %struct.AF_CJKMetricsRec_, ptr %42, i32 0, i32 2
  %44 = load i32, ptr %6, align 4, !tbaa !43
  %45 = zext i32 %44 to i64
  %46 = getelementptr inbounds nuw [2 x %struct.AF_CJKAxisRec_], ptr %43, i64 0, i64 %45
  store ptr %46, ptr %10, align 8, !tbaa !190
  call void @llvm.lifetime.start.p0(i64 8, ptr %11) #10
  %47 = load ptr, ptr %10, align 8, !tbaa !190
  %48 = getelementptr inbounds nuw %struct.AF_CJKAxisRec_, ptr %47, i32 0, i32 0
  %49 = load i64, ptr %48, align 8, !tbaa !50
  store i64 %49, ptr %11, align 8, !tbaa !42
  call void @llvm.lifetime.start.p0(i64 8, ptr %12) #10
  %50 = load ptr, ptr %5, align 8, !tbaa !10
  %51 = getelementptr inbounds nuw %struct.AF_CJKMetricsRec_, ptr %50, i32 0, i32 1
  %52 = load i32, ptr %51, align 8, !tbaa !33
  %53 = udiv i32 %52, 40
  %54 = load i64, ptr %11, align 8, !tbaa !42
  %55 = trunc i64 %54 to i32
  %56 = call i32 @FT_MulFix_x86_64(i32 noundef %53, i32 noundef %55)
  %57 = sext i32 %56 to i64
  store i64 %57, ptr %12, align 8, !tbaa !42
  %58 = load i64, ptr %12, align 8, !tbaa !42
  %59 = icmp sgt i64 %58, 32
  br i1 %59, label %60, label %61

60:                                               ; preds = %40
  store i64 32, ptr %12, align 8, !tbaa !42
  br label %61

61:                                               ; preds = %60, %40
  br label %62

62:                                               ; preds = %230, %61
  %63 = load ptr, ptr %8, align 8, !tbaa !283
  %64 = load ptr, ptr %9, align 8, !tbaa !283
  %65 = icmp ult ptr %63, %64
  br i1 %65, label %66, label %233

66:                                               ; preds = %62
  call void @llvm.lifetime.start.p0(i64 4, ptr %13) #10
  call void @llvm.lifetime.start.p0(i64 8, ptr %14) #10
  store ptr null, ptr %14, align 8, !tbaa !287
  call void @llvm.lifetime.start.p0(i64 8, ptr %15) #10
  %67 = load i64, ptr %12, align 8, !tbaa !42
  store i64 %67, ptr %15, align 8, !tbaa !42
  store i32 0, ptr %13, align 4, !tbaa !43
  br label %68

68:                                               ; preds = %219, %66
  %69 = load i32, ptr %13, align 4, !tbaa !43
  %70 = load ptr, ptr %10, align 8, !tbaa !190
  %71 = getelementptr inbounds nuw %struct.AF_CJKAxisRec_, ptr %70, i32 0, i32 8
  %72 = load i32, ptr %71, align 4, !tbaa !227
  %73 = icmp ult i32 %69, %72
  br i1 %73, label %74, label %222

74:                                               ; preds = %68
  call void @llvm.lifetime.start.p0(i64 8, ptr %16) #10
  %75 = load ptr, ptr %10, align 8, !tbaa !190
  %76 = getelementptr inbounds nuw %struct.AF_CJKAxisRec_, ptr %75, i32 0, i32 9
  %77 = getelementptr inbounds [8 x %struct.AF_CJKBlueRec_], ptr %76, i64 0, i64 0
  %78 = load i32, ptr %13, align 4, !tbaa !43
  %79 = zext i32 %78 to i64
  %80 = getelementptr inbounds nuw %struct.AF_CJKBlueRec_, ptr %77, i64 %79
  store ptr %80, ptr %16, align 8, !tbaa !228
  call void @llvm.lifetime.start.p0(i64 1, ptr %17) #10
  call void @llvm.lifetime.start.p0(i64 1, ptr %18) #10
  %81 = load ptr, ptr %16, align 8, !tbaa !228
  %82 = getelementptr inbounds nuw %struct.AF_CJKBlueRec_, ptr %81, i32 0, i32 2
  %83 = load i32, ptr %82, align 8, !tbaa !230
  %84 = and i32 %83, 1
  %85 = icmp ne i32 %84, 0
  br i1 %85, label %87, label %86

86:                                               ; preds = %74
  store i32 7, ptr %19, align 4
  br label %216

87:                                               ; preds = %74
  %88 = load ptr, ptr %16, align 8, !tbaa !228
  %89 = getelementptr inbounds nuw %struct.AF_CJKBlueRec_, ptr %88, i32 0, i32 2
  %90 = load i32, ptr %89, align 8, !tbaa !230
  %91 = and i32 %90, 2
  %92 = icmp ne i32 %91, 0
  %93 = zext i1 %92 to i32
  %94 = trunc i32 %93 to i8
  store i8 %94, ptr %17, align 1, !tbaa !127
  %95 = load ptr, ptr %8, align 8, !tbaa !283
  %96 = getelementptr inbounds nuw %struct.AF_EdgeRec_, ptr %95, i32 0, i32 4
  %97 = load i8, ptr %96, align 1, !tbaa !318
  %98 = sext i8 %97 to i32
  %99 = load ptr, ptr %7, align 8, !tbaa !192
  %100 = getelementptr inbounds nuw %struct.AF_AxisHintsRec_, ptr %99, i32 0, i32 6
  %101 = load i32, ptr %100, align 8, !tbaa !245
  %102 = icmp eq i32 %98, %101
  %103 = zext i1 %102 to i32
  %104 = icmp ne i32 %103, 0
  %105 = zext i1 %104 to i32
  %106 = trunc i32 %105 to i8
  store i8 %106, ptr %18, align 1, !tbaa !127
  %107 = load i8, ptr %17, align 1, !tbaa !127
  %108 = zext i8 %107 to i32
  %109 = load i8, ptr %18, align 1, !tbaa !127
  %110 = zext i8 %109 to i32
  %111 = xor i32 %108, %110
  %112 = icmp ne i32 %111, 0
  br i1 %112, label %113, label %215

113:                                              ; preds = %87
  call void @llvm.lifetime.start.p0(i64 8, ptr %20) #10
  call void @llvm.lifetime.start.p0(i64 8, ptr %21) #10
  %114 = load ptr, ptr %8, align 8, !tbaa !283
  %115 = getelementptr inbounds nuw %struct.AF_EdgeRec_, ptr %114, i32 0, i32 0
  %116 = load i16, ptr %115, align 8, !tbaa !320
  %117 = sext i16 %116 to i64
  %118 = load ptr, ptr %16, align 8, !tbaa !228
  %119 = getelementptr inbounds nuw %struct.AF_CJKBlueRec_, ptr %118, i32 0, i32 0
  %120 = getelementptr inbounds nuw %struct.AF_WidthRec_, ptr %119, i32 0, i32 0
  %121 = load i64, ptr %120, align 8, !tbaa !311
  %122 = sub nsw i64 %117, %121
  %123 = icmp slt i64 %122, 0
  br i1 %123, label %124, label %135

124:                                              ; preds = %113
  %125 = load ptr, ptr %8, align 8, !tbaa !283
  %126 = getelementptr inbounds nuw %struct.AF_EdgeRec_, ptr %125, i32 0, i32 0
  %127 = load i16, ptr %126, align 8, !tbaa !320
  %128 = sext i16 %127 to i64
  %129 = load ptr, ptr %16, align 8, !tbaa !228
  %130 = getelementptr inbounds nuw %struct.AF_CJKBlueRec_, ptr %129, i32 0, i32 0
  %131 = getelementptr inbounds nuw %struct.AF_WidthRec_, ptr %130, i32 0, i32 0
  %132 = load i64, ptr %131, align 8, !tbaa !311
  %133 = sub nsw i64 %128, %132
  %134 = sub nsw i64 0, %133
  br label %145

135:                                              ; preds = %113
  %136 = load ptr, ptr %8, align 8, !tbaa !283
  %137 = getelementptr inbounds nuw %struct.AF_EdgeRec_, ptr %136, i32 0, i32 0
  %138 = load i16, ptr %137, align 8, !tbaa !320
  %139 = sext i16 %138 to i64
  %140 = load ptr, ptr %16, align 8, !tbaa !228
  %141 = getelementptr inbounds nuw %struct.AF_CJKBlueRec_, ptr %140, i32 0, i32 0
  %142 = getelementptr inbounds nuw %struct.AF_WidthRec_, ptr %141, i32 0, i32 0
  %143 = load i64, ptr %142, align 8, !tbaa !311
  %144 = sub nsw i64 %139, %143
  br label %145

145:                                              ; preds = %135, %124
  %146 = phi i64 [ %134, %124 ], [ %144, %135 ]
  %147 = load ptr, ptr %8, align 8, !tbaa !283
  %148 = getelementptr inbounds nuw %struct.AF_EdgeRec_, ptr %147, i32 0, i32 0
  %149 = load i16, ptr %148, align 8, !tbaa !320
  %150 = sext i16 %149 to i64
  %151 = load ptr, ptr %16, align 8, !tbaa !228
  %152 = getelementptr inbounds nuw %struct.AF_CJKBlueRec_, ptr %151, i32 0, i32 1
  %153 = getelementptr inbounds nuw %struct.AF_WidthRec_, ptr %152, i32 0, i32 0
  %154 = load i64, ptr %153, align 8, !tbaa !314
  %155 = sub nsw i64 %150, %154
  %156 = icmp slt i64 %155, 0
  br i1 %156, label %157, label %168

157:                                              ; preds = %145
  %158 = load ptr, ptr %8, align 8, !tbaa !283
  %159 = getelementptr inbounds nuw %struct.AF_EdgeRec_, ptr %158, i32 0, i32 0
  %160 = load i16, ptr %159, align 8, !tbaa !320
  %161 = sext i16 %160 to i64
  %162 = load ptr, ptr %16, align 8, !tbaa !228
  %163 = getelementptr inbounds nuw %struct.AF_CJKBlueRec_, ptr %162, i32 0, i32 1
  %164 = getelementptr inbounds nuw %struct.AF_WidthRec_, ptr %163, i32 0, i32 0
  %165 = load i64, ptr %164, align 8, !tbaa !314
  %166 = sub nsw i64 %161, %165
  %167 = sub nsw i64 0, %166
  br label %178

168:                                              ; preds = %145
  %169 = load ptr, ptr %8, align 8, !tbaa !283
  %170 = getelementptr inbounds nuw %struct.AF_EdgeRec_, ptr %169, i32 0, i32 0
  %171 = load i16, ptr %170, align 8, !tbaa !320
  %172 = sext i16 %171 to i64
  %173 = load ptr, ptr %16, align 8, !tbaa !228
  %174 = getelementptr inbounds nuw %struct.AF_CJKBlueRec_, ptr %173, i32 0, i32 1
  %175 = getelementptr inbounds nuw %struct.AF_WidthRec_, ptr %174, i32 0, i32 0
  %176 = load i64, ptr %175, align 8, !tbaa !314
  %177 = sub nsw i64 %172, %176
  br label %178

178:                                              ; preds = %168, %157
  %179 = phi i64 [ %167, %157 ], [ %177, %168 ]
  %180 = icmp sgt i64 %146, %179
  br i1 %180, label %181, label %184

181:                                              ; preds = %178
  %182 = load ptr, ptr %16, align 8, !tbaa !228
  %183 = getelementptr inbounds nuw %struct.AF_CJKBlueRec_, ptr %182, i32 0, i32 1
  store ptr %183, ptr %21, align 8, !tbaa !287
  br label %187

184:                                              ; preds = %178
  %185 = load ptr, ptr %16, align 8, !tbaa !228
  %186 = getelementptr inbounds nuw %struct.AF_CJKBlueRec_, ptr %185, i32 0, i32 0
  store ptr %186, ptr %21, align 8, !tbaa !287
  br label %187

187:                                              ; preds = %184, %181
  %188 = load ptr, ptr %8, align 8, !tbaa !283
  %189 = getelementptr inbounds nuw %struct.AF_EdgeRec_, ptr %188, i32 0, i32 0
  %190 = load i16, ptr %189, align 8, !tbaa !320
  %191 = sext i16 %190 to i64
  %192 = load ptr, ptr %21, align 8, !tbaa !287
  %193 = getelementptr inbounds nuw %struct.AF_WidthRec_, ptr %192, i32 0, i32 0
  %194 = load i64, ptr %193, align 8, !tbaa !204
  %195 = sub nsw i64 %191, %194
  store i64 %195, ptr %20, align 8, !tbaa !42
  %196 = load i64, ptr %20, align 8, !tbaa !42
  %197 = icmp slt i64 %196, 0
  br i1 %197, label %198, label %201

198:                                              ; preds = %187
  %199 = load i64, ptr %20, align 8, !tbaa !42
  %200 = sub nsw i64 0, %199
  store i64 %200, ptr %20, align 8, !tbaa !42
  br label %201

201:                                              ; preds = %198, %187
  %202 = load i64, ptr %20, align 8, !tbaa !42
  %203 = trunc i64 %202 to i32
  %204 = load i64, ptr %11, align 8, !tbaa !42
  %205 = trunc i64 %204 to i32
  %206 = call i32 @FT_MulFix_x86_64(i32 noundef %203, i32 noundef %205)
  %207 = sext i32 %206 to i64
  store i64 %207, ptr %20, align 8, !tbaa !42
  %208 = load i64, ptr %20, align 8, !tbaa !42
  %209 = load i64, ptr %15, align 8, !tbaa !42
  %210 = icmp slt i64 %208, %209
  br i1 %210, label %211, label %214

211:                                              ; preds = %201
  %212 = load i64, ptr %20, align 8, !tbaa !42
  store i64 %212, ptr %15, align 8, !tbaa !42
  %213 = load ptr, ptr %21, align 8, !tbaa !287
  store ptr %213, ptr %14, align 8, !tbaa !287
  br label %214

214:                                              ; preds = %211, %201
  call void @llvm.lifetime.end.p0(i64 8, ptr %21) #10
  call void @llvm.lifetime.end.p0(i64 8, ptr %20) #10
  br label %215

215:                                              ; preds = %214, %87
  store i32 0, ptr %19, align 4
  br label %216

216:                                              ; preds = %215, %86
  call void @llvm.lifetime.end.p0(i64 1, ptr %18) #10
  call void @llvm.lifetime.end.p0(i64 1, ptr %17) #10
  call void @llvm.lifetime.end.p0(i64 8, ptr %16) #10
  %217 = load i32, ptr %19, align 4
  switch i32 %217, label %234 [
    i32 0, label %218
    i32 7, label %219
  ]

218:                                              ; preds = %216
  br label %219

219:                                              ; preds = %218, %216
  %220 = load i32, ptr %13, align 4, !tbaa !43
  %221 = add i32 %220, 1
  store i32 %221, ptr %13, align 4, !tbaa !43
  br label %68, !llvm.loop !321

222:                                              ; preds = %68
  %223 = load ptr, ptr %14, align 8, !tbaa !287
  %224 = icmp ne ptr %223, null
  br i1 %224, label %225, label %229

225:                                              ; preds = %222
  %226 = load ptr, ptr %14, align 8, !tbaa !287
  %227 = load ptr, ptr %8, align 8, !tbaa !283
  %228 = getelementptr inbounds nuw %struct.AF_EdgeRec_, ptr %227, i32 0, i32 6
  store ptr %226, ptr %228, align 8, !tbaa !322
  br label %229

229:                                              ; preds = %225, %222
  call void @llvm.lifetime.end.p0(i64 8, ptr %15) #10
  call void @llvm.lifetime.end.p0(i64 8, ptr %14) #10
  call void @llvm.lifetime.end.p0(i64 4, ptr %13) #10
  br label %230

230:                                              ; preds = %229
  %231 = load ptr, ptr %8, align 8, !tbaa !283
  %232 = getelementptr inbounds nuw %struct.AF_EdgeRec_, ptr %231, i32 1
  store ptr %232, ptr %8, align 8, !tbaa !283
  br label %62, !llvm.loop !323

233:                                              ; preds = %62
  call void @llvm.lifetime.end.p0(i64 8, ptr %12) #10
  call void @llvm.lifetime.end.p0(i64 8, ptr %11) #10
  call void @llvm.lifetime.end.p0(i64 8, ptr %10) #10
  call void @llvm.lifetime.end.p0(i64 8, ptr %9) #10
  call void @llvm.lifetime.end.p0(i64 8, ptr %8) #10
  call void @llvm.lifetime.end.p0(i64 8, ptr %7) #10
  ret void

234:                                              ; preds = %216
  unreachable
}