; Function Attrs: nofree norecurse nosync nounwind memory(readwrite, inaccessiblemem: none) uwtable
define internal fastcc void @af_cjk_hints_compute_blue_edges(ptr noundef readonly captures(none) %0, ptr noundef %1, i32 noundef range(i32 0, 2) %2) unnamed_addr #8 {
  %4 = getelementptr inbounds nuw i8, ptr %0, i64 72
  %5 = zext nneg i32 %2 to i64
  %6 = getelementptr inbounds nuw [2 x %struct.AF_AxisHintsRec_], ptr %4, i64 0, i64 %5
  %7 = getelementptr inbounds nuw i8, ptr %6, i64 24
  %8 = load ptr, ptr %7, align 8, !tbaa !85
  %.not = icmp eq ptr %8, null
  br i1 %.not, label %14, label %9

9:                                                ; preds = %3
  %10 = getelementptr inbounds nuw i8, ptr %6, i64 16
  %11 = load i32, ptr %10, align 8, !tbaa !90
  %12 = zext i32 %11 to i64
  %13 = getelementptr inbounds nuw %struct.AF_EdgeRec_, ptr %8, i64 %12
  br label %14

14:                                               ; preds = %3, %9
  %15 = phi ptr [ %13, %9 ], [ null, %3 ]
  %16 = getelementptr inbounds nuw i8, ptr %1, i64 80
  %17 = getelementptr inbounds nuw [2 x %struct.AF_CJKAxisRec_], ptr %16, i64 0, i64 %5
  %18 = load i64, ptr %17, align 8, !tbaa !76
  %19 = getelementptr inbounds nuw i8, ptr %1, i64 72
  %20 = load i32, ptr %19, align 8, !tbaa !26
  %21 = udiv i32 %20, 40
  %22 = zext nneg i32 %21 to i64
  %sext = shl i64 %18, 32
  %23 = ashr exact i64 %sext, 32
  %24 = mul nsw i64 %23, %22
  %25 = ashr i64 %24, 63
  %26 = add nsw i64 %24, 32768
  %27 = add nsw i64 %26, %25
  %28 = lshr i64 %27, 16
  %29 = trunc i64 %28 to i32
  %30 = tail call i32 @llvm.smin.i32(i32 %29, i32 32)
  %spec.store.select = sext i32 %30 to i64
  %31 = icmp ult ptr %8, %15
  br i1 %31, label %.preheader.lr.ph, label %._crit_edge78

.preheader.lr.ph:                                 ; preds = %14
  %32 = getelementptr inbounds nuw i8, ptr %17, i64 428
  %33 = load i32, ptr %32, align 4, !tbaa !63
  %.not79 = icmp eq i32 %33, 0
  %34 = getelementptr inbounds nuw i8, ptr %17, i64 432
  %35 = getelementptr inbounds nuw i8, ptr %6, i64 32
  br i1 %.not79, label %._crit_edge78, label %.preheader.us.preheader

.preheader.us.preheader:                          ; preds = %.preheader.lr.ph
  %wide.trip.count = zext i32 %33 to i64
  br label %.preheader.us

.preheader.us:                                    ; preds = %.preheader.us.preheader, %39
  %.05477.us = phi ptr [ %40, %39 ], [ %8, %.preheader.us.preheader ]
  %36 = getelementptr inbounds nuw i8, ptr %.05477.us, i64 25
  br label %42

37:                                               ; preds = %._crit_edge.us
  %38 = getelementptr inbounds nuw i8, ptr %.05477.us, i64 40
  store ptr %.158.us, ptr %38, align 8, !tbaa !201
  br label %39

39:                                               ; preds = %37, %._crit_edge.us
  %40 = getelementptr inbounds nuw i8, ptr %.05477.us, i64 88
  %41 = icmp ult ptr %40, %15
  br i1 %41, label %.preheader.us, label %._crit_edge78, !llvm.loop !404

42:                                               ; preds = %.preheader.us, %75
  %indvars.iv = phi i64 [ 0, %.preheader.us ], [ %indvars.iv.next, %75 ]
  %.05675.us = phi i64 [ %spec.store.select, %.preheader.us ], [ %.1.us, %75 ]
  %.05774.us = phi ptr [ null, %.preheader.us ], [ %.158.us, %75 ]
  %43 = getelementptr inbounds nuw %struct.AF_CJKBlueRec_, ptr %34, i64 %indvars.iv
  %44 = getelementptr inbounds nuw i8, ptr %43, i64 48
  %45 = load i32, ptr %44, align 8, !tbaa !384
  %46 = and i32 %45, 1
  %.not70.us = icmp eq i32 %46, 0
  br i1 %.not70.us, label %75, label %47

47:                                               ; preds = %42
  %48 = load i8, ptr %36, align 1, !tbaa !204
  %49 = sext i8 %48 to i32
  %50 = load i32, ptr %35, align 8, !tbaa !205
  %51 = icmp eq i32 %50, %49
  %52 = and i32 %45, 2
  %53 = icmp eq i32 %52, 0
  %.not71.us = xor i1 %53, %51
  br i1 %.not71.us, label %75, label %54

54:                                               ; preds = %47
  %55 = load i16, ptr %.05477.us, align 8, !tbaa !206
  %56 = sext i16 %55 to i64
  %57 = load i64, ptr %43, align 8, !tbaa !377
  %58 = sub nsw i64 %56, %57
  %59 = tail call i64 @llvm.abs.i64(i64 %58, i1 true)
  %60 = getelementptr inbounds nuw i8, ptr %43, i64 24
  %61 = load i64, ptr %60, align 8, !tbaa !381
  %62 = sub nsw i64 %56, %61
  %63 = tail call i64 @llvm.abs.i64(i64 %62, i1 true)
  %64 = icmp samesign ugt i64 %59, %63
  %65 = select i1 %64, i64 %61, i64 %57
  %.0.us = select i1 %64, ptr %60, ptr %43
  %66 = sub nsw i64 %56, %65
  %.053.us = tail call i64 @llvm.abs.i64(i64 %66, i1 true)
  %sext72.us = shl i64 %.053.us, 32
  %67 = ashr exact i64 %sext72.us, 32
  %68 = mul nsw i64 %67, %23
  %69 = ashr i64 %68, 63
  %70 = add nsw i64 %68, 32768
  %71 = add nsw i64 %70, %69
  %72 = shl i64 %71, 16
  %73 = ashr i64 %72, 32
  %74 = icmp sgt i64 %.05675.us, %73
  %.360.us = select i1 %74, ptr %.0.us, ptr %.05774.us
  %.3.us = tail call i64 @llvm.smin.i64(i64 %.05675.us, i64 %73)
  br label %75

75:                                               ; preds = %54, %47, %42
  %.158.us = phi ptr [ %.05774.us, %42 ], [ %.360.us, %54 ], [ %.05774.us, %47 ]
  %.1.us = phi i64 [ %.05675.us, %42 ], [ %.3.us, %54 ], [ %.05675.us, %47 ]
  %indvars.iv.next = add nuw nsw i64 %indvars.iv, 1
  %exitcond.not = icmp eq i64 %indvars.iv.next, %wide.trip.count
  br i1 %exitcond.not, label %._crit_edge.us, label %42, !llvm.loop !405

._crit_edge.us:                                   ; preds = %75
  %.not69.us = icmp eq ptr %.158.us, null
  br i1 %.not69.us, label %39, label %37

._crit_edge78:                                    ; preds = %39, %.preheader.lr.ph, %14
  ret void
}